target datalayout = "e-m:e-p270:32:32-p271:32:32-p272:64:64-i64:64-i128:128-f80:128-n8:16:32:64-S128"
target triple = "x86_64-pc-linux-gnu"

%class.PreferenceEditorFrame = type { %class.AccordionFrame, ptr, ptr, ptr, i32, %class.QString, ptr }
%class.AccordionFrame = type { %class.QFrame, i32, ptr }
%class.QFrame = type { %class.QWidget }
%class.QWidget = type { %class.QObject, %class.QPaintDevice.base, ptr }
%class.QObject = type { ptr, %class.QScopedPointer }
%class.QScopedPointer = type { ptr }
%class.QPaintDevice.base = type <{ ptr, i16 }>
%class.QString = type { %struct.QArrayDataPointer }
%struct.QArrayDataPointer = type { ptr, ptr, i64 }
%struct.pref_module = type { ptr, ptr, ptr, ptr, ptr, ptr, ptr, i32, i32, i32, i32, i32 }
%"class.std::__cxx11::basic_string" = type { %"struct.std::__cxx11::basic_string<char>::_Alloc_hider", i64, %union.anon }
%"struct.std::__cxx11::basic_string<char>::_Alloc_hider" = type { ptr }
%union.anon = type { i64, [8 x i8] }
%struct.pref_unstash_data = type { ptr, i32 }

@mainApp = external global ptr, align 8
@.str.6 = private unnamed_addr constant [3 x i8] c"%s\00", align 1

; Function Attrs: mustprogress uwtable
define void @_ZN21PreferenceEditorFrame21on_buttonBox_rejectedEv(ptr noundef nonnull align 8 dereferenceable(120) %0) #0 align 2 {
  %2 = alloca ptr, align 8
  store ptr %0, ptr %2, align 8
  %3 = load ptr, ptr %2, align 8
  %4 = getelementptr inbounds %class.PreferenceEditorFrame, ptr %3, i32 0, i32 3
  store ptr null, ptr %4, align 8
  %5 = getelementptr inbounds %class.PreferenceEditorFrame, ptr %3, i32 0, i32 2
  store ptr null, ptr %5, align 8
  %6 = getelementptr inbounds %class.PreferenceEditorFrame, ptr %3, i32 0, i32 6
  %7 = load ptr, ptr %6, align 8
  call void @wmem_free(ptr noundef null, ptr noundef %7)
  %8 = getelementptr inbounds %class.PreferenceEditorFrame, ptr %3, i32 0, i32 6
  store ptr null, ptr %8, align 8
  call void @_ZN14AccordionFrame12animatedHideEv(ptr noundef nonnull align 8 dereferenceable(56) %3)
  ret void
}

; Function Attrs: mustprogress uwtable
define void @_ZN21PreferenceEditorFrame21on_buttonBox_acceptedEv(ptr noundef nonnull align 8 dereferenceable(120) %0) #0 align 2 personality ptr @__gxx_personality_v0 {
  %2 = alloca ptr, align 8
  %3 = alloca i32, align 4
  %4 = alloca i32, align 4
  %5 = alloca %"class.std::__cxx11::basic_string", align 8
  %6 = alloca ptr, align 8
  %7 = alloca i32, align 4
  %8 = alloca %"class.std::__cxx11::basic_string", align 8
  %9 = alloca %struct.pref_unstash_data, align 8
  %10 = alloca ptr, align 8
  store ptr %0, ptr %2, align 8
  %11 = load ptr, ptr %2, align 8
  store i32 0, ptr %3, align 4
  store i32 0, ptr %4, align 4
  %12 = getelementptr inbounds %class.PreferenceEditorFrame, ptr %11, i32 0, i32 3
  %13 = load ptr, ptr %12, align 8
  %14 = call i32 @prefs_get_type(ptr noundef %13)
  switch i32 %14, label %49 [
    i32 1, label %15
    i32 8, label %21
    i32 128, label %21
    i32 16384, label %21
    i32 2048, label %21
    i32 131072, label %21
    i32 32768, label %32
    i32 16, label %43
    i32 8192, label %43
  ]

15:                                               ; preds = %1
  %16 = getelementptr inbounds %class.PreferenceEditorFrame, ptr %11, i32 0, i32 3
  %17 = load ptr, ptr %16, align 8
  %18 = getelementptr inbounds %class.PreferenceEditorFrame, ptr %11, i32 0, i32 4
  %19 = load i32, ptr %18, align 8
  %20 = call i32 @prefs_set_uint_value(ptr noundef %17, i32 noundef %19, i32 noundef 1)
  store i32 %20, ptr %4, align 4
  br label %50

21:                                               ; preds = %1, %1, %1, %1, %1
  %22 = getelementptr inbounds %class.PreferenceEditorFrame, ptr %11, i32 0, i32 3
  %23 = load ptr, ptr %22, align 8
  %24 = getelementptr inbounds %class.PreferenceEditorFrame, ptr %11, i32 0, i32 5
  call void @_ZNK7QString11toStdStringB5cxx11Ev(ptr dead_on_unwind writable sret(%"class.std::__cxx11::basic_string") align 8 %5, ptr noundef nonnull align 8 dereferenceable(24) %24)
  %25 = call noundef ptr @_ZNKSt7__cxx1112basic_stringIcSt11char_traitsIcESaIcEE5c_strEv(ptr noundef nonnull align 8 dereferenceable(32) %5) #15
  %26 = invoke i32 @prefs_set_string_value(ptr noundef %23, ptr noundef %25, i32 noundef 1)
          to label %27 unwind label %28

27:                                               ; preds = %21
  store i32 %26, ptr %4, align 4
  call void @_ZNSt7__cxx1112basic_stringIcSt11char_traitsIcESaIcEED1Ev(ptr noundef nonnull align 8 dereferenceable(32) %5) #15
  br label %50

28:                                               ; preds = %21
  %29 = landingpad { ptr, i32 }
          cleanup
  %30 = extractvalue { ptr, i32 } %29, 0
  store ptr %30, ptr %6, align 8
  %31 = extractvalue { ptr, i32 } %29, 1
  store i32 %31, ptr %7, align 4
  call void @_ZNSt7__cxx1112basic_stringIcSt11char_traitsIcESaIcEED1Ev(ptr noundef nonnull align 8 dereferenceable(32) %5) #15
  br label %91

32:                                               ; preds = %1
  %33 = getelementptr inbounds %class.PreferenceEditorFrame, ptr %11, i32 0, i32 3
  %34 = load ptr, ptr %33, align 8
  %35 = getelementptr inbounds %class.PreferenceEditorFrame, ptr %11, i32 0, i32 5
  call void @_ZNK7QString11toStdStringB5cxx11Ev(ptr dead_on_unwind writable sret(%"class.std::__cxx11::basic_string") align 8 %8, ptr noundef nonnull align 8 dereferenceable(24) %35)
  %36 = call noundef ptr @_ZNKSt7__cxx1112basic_stringIcSt11char_traitsIcESaIcEE5c_strEv(ptr noundef nonnull align 8 dereferenceable(32) %8) #15
  %37 = invoke i32 @prefs_set_password_value(ptr noundef %34, ptr noundef %36, i32 noundef 1)
          to label %38 unwind label %39

38:                                               ; preds = %32
  store i32 %37, ptr %4, align 4
  call void @_ZNSt7__cxx1112basic_stringIcSt11char_traitsIcESaIcEED1Ev(ptr noundef nonnull align 8 dereferenceable(32) %8) #15
  br label %50

39:                                               ; preds = %32
  %40 = landingpad { ptr, i32 }
          cleanup
  %41 = extractvalue { ptr, i32 } %40, 0
  store ptr %41, ptr %6, align 8
  %42 = extractvalue { ptr, i32 } %40, 1
  store i32 %42, ptr %7, align 4
  call void @_ZNSt7__cxx1112basic_stringIcSt11char_traitsIcESaIcEED1Ev(ptr noundef nonnull align 8 dereferenceable(32) %8) #15
  br label %91

43:                                               ; preds = %1, %1
  %44 = getelementptr inbounds %class.PreferenceEditorFrame, ptr %11, i32 0, i32 3
  %45 = load ptr, ptr %44, align 8
  %46 = getelementptr inbounds %class.PreferenceEditorFrame, ptr %11, i32 0, i32 6
  %47 = load ptr, ptr %46, align 8
  %48 = call i32 @prefs_set_range_value(ptr noundef %45, ptr noundef %47, i32 noundef 1)
  store i32 %48, ptr %4, align 4
  br label %50

49:                                               ; preds = %1
  br label %50

50:                                               ; preds = %49, %43, %38, %27, %15
  %51 = load i32, ptr %4, align 4
  %52 = icmp ne i32 %51, 0
  br i1 %52, label %53, label %78

53:                                               ; preds = %50
  %54 = getelementptr inbounds %class.PreferenceEditorFrame, ptr %11, i32 0, i32 2
  %55 = load ptr, ptr %54, align 8
  %56 = icmp ne ptr %55, null
  br i1 %56, label %57, label %78

57:                                               ; preds = %53
  %58 = getelementptr inbounds %class.PreferenceEditorFrame, ptr %11, i32 0, i32 2
  %59 = load ptr, ptr %58, align 8
  %60 = getelementptr inbounds %struct.pref_module, ptr %59, i32 0, i32 8
  %61 = load i32, ptr %60, align 4
  store i32 %61, ptr %3, align 4
  %62 = getelementptr inbounds %class.PreferenceEditorFrame, ptr %11, i32 0, i32 2
  %63 = load ptr, ptr %62, align 8
  %64 = getelementptr inbounds %struct.pref_unstash_data, ptr %9, i32 0, i32 0
  store ptr %63, ptr %64, align 8
  %65 = getelementptr inbounds %struct.pref_unstash_data, ptr %9, i32 0, i32 1
  store i32 1, ptr %65, align 8
  %66 = getelementptr inbounds %class.PreferenceEditorFrame, ptr %11, i32 0, i32 3
  %67 = load ptr, ptr %66, align 8
  %68 = call i32 @pref_unstash(ptr noundef %67, ptr noundef %9)
  %69 = getelementptr inbounds %class.PreferenceEditorFrame, ptr %11, i32 0, i32 2
  %70 = load ptr, ptr %69, align 8
  call void @prefs_apply(ptr noundef %70)
  call void @prefs_main_write()
  store ptr null, ptr %10, align 8
  %71 = call i32 @save_decode_as_entries(ptr noundef %10)
  %72 = icmp slt i32 %71, 0
  br i1 %72, label %73, label %77

73:                                               ; preds = %57
  %74 = load ptr, ptr %10, align 8
  %75 = call ptr (i32, i32, ptr, ...) @simple_dialog(i32 noundef 3, i32 noundef 1, ptr noundef @.str.6, ptr noundef %74)
  %76 = load ptr, ptr %10, align 8
  call void @g_free(ptr noundef %76)
  br label %77

77:                                               ; preds = %73, %57
  br label %78

78:                                               ; preds = %77, %53, %50
  call void @_ZN21PreferenceEditorFrame21on_buttonBox_rejectedEv(ptr noundef nonnull align 8 dereferenceable(120) %11)
  %79 = load i32, ptr %4, align 4
  %80 = icmp ne i32 %79, 0
  br i1 %80, label %81, label %90

81:                                               ; preds = %78
  %82 = load i32, ptr %3, align 4
  %83 = and i32 %82, 8
  %84 = icmp ne i32 %83, 0
  br i1 %84, label %85, label %87

85:                                               ; preds = %81
  %86 = load ptr, ptr @mainApp, align 8
  call void @_ZN15MainApplication13emitAppSignalENS_9AppSignalE(ptr noundef nonnull align 8 dereferenceable(216) %86, i32 noundef 4)
  br label %87

87:                                               ; preds = %85, %81
  %88 = load ptr, ptr @mainApp, align 8
  call void @_ZN15MainApplication13emitAppSignalENS_9AppSignalE(ptr noundef nonnull align 8 dereferenceable(216) %88, i32 noundef 8)
  %89 = load ptr, ptr @mainApp, align 8
  call void @_ZN15MainApplication13emitAppSignalENS_9AppSignalE(ptr noundef nonnull align 8 dereferenceable(216) %89, i32 noundef 9)
  br label %90

90:                                               ; preds = %87, %78
  ret void

91:                                               ; preds = %39, %28
  %92 = load ptr, ptr %6, align 8
  %93 = load i32, ptr %7, align 4
  %94 = insertvalue { ptr, i32 } poison, ptr %92, 0
  %95 = insertvalue { ptr, i32 } %94, i32 %93, 1
  resume { ptr, i32 } %95
}