; Function Attrs: mustprogress uwtable
define void @_ZN21PreferenceEditorFrame21on_buttonBox_acceptedEv(ptr noundef nonnull align 8 dereferenceable(120) %0) local_unnamed_addr #0 align 2 personality ptr @__gxx_personality_v0 {
  %2 = alloca %"class.std::__cxx11::basic_string", align 8
  %3 = alloca %"class.std::__cxx11::basic_string", align 8
  %4 = alloca %struct.pref_unstash_data, align 8
  %5 = alloca ptr, align 8
  %6 = getelementptr inbounds i8, ptr %0, i64 72
  %7 = load ptr, ptr %6, align 8
  %8 = tail call i32 @prefs_get_type(ptr noundef %7)
  switch i32 %8, label %.thread [
    i32 1, label %9
    i32 8, label %14
    i32 128, label %14
    i32 16384, label %14
    i32 2048, label %14
    i32 131072, label %14
    i32 32768, label %22
    i32 16, label %30
    i32 8192, label %30
  ]

9:                                                ; preds = %1
  %10 = load ptr, ptr %6, align 8
  %11 = getelementptr inbounds i8, ptr %0, i64 80
  %12 = load i32, ptr %11, align 8
  %13 = tail call i32 @prefs_set_uint_value(ptr noundef %10, i32 noundef %12, i32 noundef 1)
  br label %35

14:                                               ; preds = %1, %1, %1, %1, %1
  %15 = load ptr, ptr %6, align 8
  %16 = getelementptr inbounds i8, ptr %0, i64 88
  call void @_ZNK7QString11toStdStringB5cxx11Ev(ptr dead_on_unwind nonnull writable sret(%"class.std::__cxx11::basic_string") align 8 %2, ptr noundef nonnull align 8 dereferenceable(24) %16)
  %17 = call noundef ptr @_ZNKSt7__cxx1112basic_stringIcSt11char_traitsIcESaIcEE5c_strEv(ptr noundef nonnull align 8 dereferenceable(32) %2) #15
  %18 = invoke i32 @prefs_set_string_value(ptr noundef %15, ptr noundef %17, i32 noundef 1)
          to label %19 unwind label %20

19:                                               ; preds = %14
  call void @_ZNSt7__cxx1112basic_stringIcSt11char_traitsIcESaIcEED1Ev(ptr noundef nonnull align 8 dereferenceable(32) %2) #15
  br label %35

20:                                               ; preds = %14
  %21 = landingpad { ptr, i32 }
          cleanup
  br label %63

22:                                               ; preds = %1
  %23 = load ptr, ptr %6, align 8
  %24 = getelementptr inbounds i8, ptr %0, i64 88
  call void @_ZNK7QString11toStdStringB5cxx11Ev(ptr dead_on_unwind nonnull writable sret(%"class.std::__cxx11::basic_string") align 8 %3, ptr noundef nonnull align 8 dereferenceable(24) %24)
  %25 = call noundef ptr @_ZNKSt7__cxx1112basic_stringIcSt11char_traitsIcESaIcEE5c_strEv(ptr noundef nonnull align 8 dereferenceable(32) %3) #15
  %26 = invoke i32 @prefs_set_password_value(ptr noundef %23, ptr noundef %25, i32 noundef 1)
          to label %27 unwind label %28

27:                                               ; preds = %22
  call void @_ZNSt7__cxx1112basic_stringIcSt11char_traitsIcESaIcEED1Ev(ptr noundef nonnull align 8 dereferenceable(32) %3) #15
  br label %35

28:                                               ; preds = %22
  %29 = landingpad { ptr, i32 }
          cleanup
  br label %63

30:                                               ; preds = %1, %1
  %31 = load ptr, ptr %6, align 8
  %32 = getelementptr inbounds i8, ptr %0, i64 112
  %33 = load ptr, ptr %32, align 8
  %34 = tail call i32 @prefs_set_range_value(ptr noundef %31, ptr noundef %33, i32 noundef 1)
  br label %35

35:                                               ; preds = %30, %27, %19, %9
  %.06 = phi i32 [ %34, %30 ], [ %26, %27 ], [ %18, %19 ], [ %13, %9 ]
  %.not = icmp eq i32 %.06, 0
  br i1 %.not, label %.thread, label %36

36:                                               ; preds = %35
  %37 = getelementptr inbounds i8, ptr %0, i64 64
  %38 = load ptr, ptr %37, align 8
  %.not10 = icmp eq ptr %38, null
  br i1 %.not10, label %.thread, label %39

39:                                               ; preds = %36
  %40 = getelementptr inbounds i8, ptr %38, i64 60
  %41 = load i32, ptr %40, align 4
  store ptr %38, ptr %4, align 8
  %42 = getelementptr inbounds i8, ptr %4, i64 8
  store i32 1, ptr %42, align 8
  %43 = load ptr, ptr %6, align 8
  %44 = call i32 @pref_unstash(ptr noundef %43, ptr noundef nonnull %4)
  %45 = load ptr, ptr %37, align 8
  call void @prefs_apply(ptr noundef %45)
  call void @prefs_main_write()
  store ptr null, ptr %5, align 8
  %46 = call i32 @save_decode_as_entries(ptr noundef nonnull %5)
  %47 = icmp slt i32 %46, 0
  br i1 %47, label %48, label %.thread

48:                                               ; preds = %39
  %49 = load ptr, ptr %5, align 8
  %50 = call ptr (i32, i32, ptr, ...) @simple_dialog(i32 noundef 3, i32 noundef 1, ptr noundef nonnull @.str.6, ptr noundef %49)
  %51 = load ptr, ptr %5, align 8
  call void @g_free(ptr noundef %51)
  br label %.thread

.thread:                                          ; preds = %1, %39, %48, %36, %35
  %.not14 = phi i1 [ false, %48 ], [ false, %39 ], [ false, %36 ], [ true, %35 ], [ true, %1 ]
  %.07 = phi i32 [ %41, %48 ], [ %41, %39 ], [ 0, %36 ], [ 0, %35 ], [ 0, %1 ]
  %52 = getelementptr inbounds i8, ptr %0, i64 64
  %53 = getelementptr inbounds i8, ptr %0, i64 112
  call void @llvm.memset.p0.i64(ptr noundef nonnull align 8 dereferenceable(16) %52, i8 0, i64 16, i1 false)
  %54 = load ptr, ptr %53, align 8
  call void @wmem_free(ptr noundef null, ptr noundef %54)
  store ptr null, ptr %53, align 8
  call void @_ZN14AccordionFrame12animatedHideEv(ptr noundef nonnull align 8 dereferenceable(56) %0)
  br i1 %.not14, label %62, label %55

55:                                               ; preds = %.thread
  %56 = and i32 %.07, 8
  %.not11 = icmp eq i32 %56, 0
  br i1 %.not11, label %59, label %57

57:                                               ; preds = %55
  %58 = load ptr, ptr @mainApp, align 8
  call void @_ZN15MainApplication13emitAppSignalENS_9AppSignalE(ptr noundef nonnull align 8 dereferenceable(216) %58, i32 noundef 4)
  br label %59

59:                                               ; preds = %57, %55
  %60 = load ptr, ptr @mainApp, align 8
  call void @_ZN15MainApplication13emitAppSignalENS_9AppSignalE(ptr noundef nonnull align 8 dereferenceable(216) %60, i32 noundef 8)
  %61 = load ptr, ptr @mainApp, align 8
  call void @_ZN15MainApplication13emitAppSignalENS_9AppSignalE(ptr noundef nonnull align 8 dereferenceable(216) %61, i32 noundef 9)
  br label %62

62:                                               ; preds = %59, %.thread
  ret void

63:                                               ; preds = %28, %20
  %.sink = phi ptr [ %3, %28 ], [ %2, %20 ]
  %.pn = phi { ptr, i32 } [ %29, %28 ], [ %21, %20 ]
  call void @_ZNSt7__cxx1112basic_stringIcSt11char_traitsIcESaIcEED1Ev(ptr noundef nonnull align 8 dereferenceable(32) %.sink) #15
  resume { ptr, i32 } %.pn
}